; Function Attrs: nounwind uwtable
define ptr @l_Lean_Meta_getMutualInductName___boxed(ptr noundef %0, ptr noundef %1) local_unnamed_addr #1 {
  %3 = ptrtoint ptr %1 to i64
  %4 = and i64 %3, 1
  %.not = icmp eq i64 %4, 0
  br i1 %.not, label %5, label %lean_dec.exit

5:                                                ; preds = %2
  %6 = load i32, ptr %1, align 4, !tbaa !4
  %7 = icmp sgt i32 %6, 1
  br i1 %7, label %8, label %10, !prof !9

8:                                                ; preds = %5
  %9 = add nsw i32 %6, -1
  store i32 %9, ptr %1, align 4, !tbaa !4
  br label %lean_dec.exit

10:                                               ; preds = %5
  %.not.i = icmp eq i32 %6, 0
  br i1 %.not.i, label %lean_dec.exit, label %11

11:                                               ; preds = %10
  tail call void @lean_dec_ref_cold(ptr noundef nonnull %1) #7
  br label %lean_dec.exit

lean_dec.exit:                                    ; preds = %11, %10, %8, %2
  %12 = and i64 %3, 510
  %13 = icmp eq i64 %12, 0
  %l_Lean_Meta_getMutualInductName___closed__2.val.i = load ptr, ptr @l_Lean_Meta_getMutualInductName___closed__2, align 8
  %l_Lean_Meta_getMutualInductName___closed__4.val.i = load ptr, ptr @l_Lean_Meta_getMutualInductName___closed__4, align 8
  %14 = select i1 %13, ptr %l_Lean_Meta_getMutualInductName___closed__2.val.i, ptr %l_Lean_Meta_getMutualInductName___closed__4.val.i
  %15 = tail call ptr @l_Lean_Name_append(ptr noundef %0, ptr noundef %14) #7
  ret ptr %15
}